target datalayout = "e-m:e-p270:32:32-p271:32:32-p272:64:64-i64:64-i128:128-f80:128-n8:16:32:64-S128"
target triple = "x86_64-pc-linux-gnu"

%struct.JsonLexContext = type { ptr, i64, i32, ptr, ptr, ptr, i8, i32, i32, i32, i32, ptr, ptr, ptr, i8, ptr, ptr }
%struct.PopulateRecordsetState = type { ptr, ptr, ptr, ptr, ptr, i32, ptr, ptr, ptr }
%struct.JsonHashEntry = type { [64 x i8], ptr, i32 }

; Function Attrs: nounwind uwtable
define internal i32 @populate_recordset_object_field_end(ptr noundef %0, ptr noundef %1, i1 noundef zeroext %2) #0 {
  %4 = alloca i32, align 4
  %5 = alloca ptr, align 8
  %6 = alloca ptr, align 8
  %7 = alloca i8, align 1
  %8 = alloca ptr, align 8
  %9 = alloca ptr, align 8
  %10 = alloca i8, align 1
  %11 = alloca i32, align 4
  %12 = alloca i32, align 4
  %13 = alloca ptr, align 8
  store ptr %0, ptr %5, align 8
  store ptr %1, ptr %6, align 8
  %14 = zext i1 %2 to i8
  store i8 %14, ptr %7, align 1
  call void @llvm.lifetime.start.p0(i64 8, ptr %8) #10
  %15 = load ptr, ptr %5, align 8
  store ptr %15, ptr %8, align 8
  call void @llvm.lifetime.start.p0(i64 8, ptr %9) #10
  call void @llvm.lifetime.start.p0(i64 1, ptr %10) #10
  %16 = load ptr, ptr %8, align 8
  %17 = getelementptr inbounds nuw %struct.PopulateRecordsetState, ptr %16, i32 0, i32 0
  %18 = load ptr, ptr %17, align 8
  %19 = getelementptr inbounds nuw %struct.JsonLexContext, ptr %18, i32 0, i32 8
  %20 = load i32, ptr %19, align 8
  %21 = icmp sgt i32 %20, 2
  br i1 %21, label %22, label %23

22:                                               ; preds = %3
  store i32 0, ptr %4, align 4
  store i32 1, ptr %11, align 4
  br label %81

23:                                               ; preds = %3
  %24 = load ptr, ptr %6, align 8
  %25 = call i64 @strlen(ptr noundef %24) #13
  %26 = icmp uge i64 %25, 64
  br i1 %26, label %27, label %28

27:                                               ; preds = %23
  store i32 0, ptr %4, align 4
  store i32 1, ptr %11, align 4
  br label %81

28:                                               ; preds = %23
  %29 = load ptr, ptr %8, align 8
  %30 = getelementptr inbounds nuw %struct.PopulateRecordsetState, ptr %29, i32 0, i32 2
  %31 = load ptr, ptr %30, align 8
  %32 = load ptr, ptr %6, align 8
  %33 = call ptr @hash_search(ptr noundef %31, ptr noundef %32, i32 noundef 1, ptr noundef %10)
  store ptr %33, ptr %9, align 8
  %34 = load ptr, ptr %8, align 8
  %35 = getelementptr inbounds nuw %struct.PopulateRecordsetState, ptr %34, i32 0, i32 5
  %36 = load i32, ptr %35, align 8
  %37 = load ptr, ptr %9, align 8
  %38 = getelementptr inbounds nuw %struct.JsonHashEntry, ptr %37, i32 0, i32 2
  store i32 %36, ptr %38, align 8
  %39 = load ptr, ptr %8, align 8
  %40 = getelementptr inbounds nuw %struct.PopulateRecordsetState, ptr %39, i32 0, i32 4
  %41 = load ptr, ptr %40, align 8
  %42 = icmp ne ptr %41, null
  br i1 %42, label %43, label %74

43:                                               ; preds = %28
  call void @llvm.lifetime.start.p0(i64 4, ptr %12) #10
  %44 = load ptr, ptr %8, align 8
  %45 = getelementptr inbounds nuw %struct.PopulateRecordsetState, ptr %44, i32 0, i32 0
  %46 = load ptr, ptr %45, align 8
  %47 = getelementptr inbounds nuw %struct.JsonLexContext, ptr %46, i32 0, i32 5
  %48 = load ptr, ptr %47, align 8
  %49 = load ptr, ptr %8, align 8
  %50 = getelementptr inbounds nuw %struct.PopulateRecordsetState, ptr %49, i32 0, i32 4
  %51 = load ptr, ptr %50, align 8
  %52 = ptrtoint ptr %48 to i64
  %53 = ptrtoint ptr %51 to i64
  %54 = sub i64 %52, %53
  %55 = trunc i64 %54 to i32
  store i32 %55, ptr %12, align 4
  call void @llvm.lifetime.start.p0(i64 8, ptr %13) #10
  %56 = load i32, ptr %12, align 4
  %57 = add i32 %56, 1
  %58 = sext i32 %57 to i64
  %59 = mul i64 %58, 1
  %60 = call ptr @palloc(i64 noundef %59)
  store ptr %60, ptr %13, align 8
  %61 = load ptr, ptr %13, align 8
  %62 = load ptr, ptr %8, align 8
  %63 = getelementptr inbounds nuw %struct.PopulateRecordsetState, ptr %62, i32 0, i32 4
  %64 = load ptr, ptr %63, align 8
  %65 = load i32, ptr %12, align 4
  %66 = sext i32 %65 to i64
  call void @llvm.memcpy.p0.p0.i64(ptr align 1 %61, ptr align 1 %64, i64 %66, i1 false)
  %67 = load ptr, ptr %13, align 8
  %68 = load i32, ptr %12, align 4
  %69 = sext i32 %68 to i64
  %70 = getelementptr inbounds i8, ptr %67, i64 %69
  store i8 0, ptr %70, align 1
  %71 = load ptr, ptr %13, align 8
  %72 = load ptr, ptr %9, align 8
  %73 = getelementptr inbounds nuw %struct.JsonHashEntry, ptr %72, i32 0, i32 1
  store ptr %71, ptr %73, align 8
  call void @llvm.lifetime.end.p0(i64 8, ptr %13) #10
  call void @llvm.lifetime.end.p0(i64 4, ptr %12) #10
  br label %80

74:                                               ; preds = %28
  %75 = load ptr, ptr %8, align 8
  %76 = getelementptr inbounds nuw %struct.PopulateRecordsetState, ptr %75, i32 0, i32 3
  %77 = load ptr, ptr %76, align 8
  %78 = load ptr, ptr %9, align 8
  %79 = getelementptr inbounds nuw %struct.JsonHashEntry, ptr %78, i32 0, i32 1
  store ptr %77, ptr %79, align 8
  br label %80

80:                                               ; preds = %74, %43
  store i32 0, ptr %4, align 4
  store i32 1, ptr %11, align 4
  br label %81

81:                                               ; preds = %80, %27, %22
  call void @llvm.lifetime.end.p0(i64 1, ptr %10) #10
  call void @llvm.lifetime.end.p0(i64 8, ptr %9) #10
  call void @llvm.lifetime.end.p0(i64 8, ptr %8) #10
  %82 = load i32, ptr %4, align 4
  ret i32 %82
}