; Function Attrs: nounwind uwtable
define internal noundef i32 @populate_recordset_object_field_end(ptr noundef readonly captures(none) %0, ptr noundef %1, i1 zeroext %2) #0 {
  %4 = alloca i8, align 1
  call void @llvm.lifetime.start.p0(i64 1, ptr nonnull %4) #15
  %5 = load ptr, ptr %0, align 8
  %6 = getelementptr inbounds nuw i8, ptr %5, i64 56
  %7 = load i32, ptr %6, align 8
  %8 = icmp sgt i32 %7, 2
  br i1 %8, label %38, label %9

9:                                                ; preds = %3
  %10 = tail call i64 @strlen(ptr noundef nonnull dereferenceable(1) %1) #18
  %11 = icmp ugt i64 %10, 63
  br i1 %11, label %38, label %12

12:                                               ; preds = %9
  %13 = getelementptr inbounds nuw i8, ptr %0, i64 16
  %14 = load ptr, ptr %13, align 8
  %15 = call ptr @hash_search(ptr noundef %14, ptr noundef nonnull %1, i32 noundef 1, ptr noundef nonnull %4) #15
  %16 = getelementptr inbounds nuw i8, ptr %0, i64 40
  %17 = load i32, ptr %16, align 8
  %18 = getelementptr inbounds nuw i8, ptr %15, i64 72
  store i32 %17, ptr %18, align 8
  %19 = getelementptr inbounds nuw i8, ptr %0, i64 32
  %20 = load ptr, ptr %19, align 8
  %.not = icmp eq ptr %20, null
  br i1 %.not, label %34, label %21

21:                                               ; preds = %12
  %22 = load ptr, ptr %0, align 8
  %23 = getelementptr inbounds nuw i8, ptr %22, i64 40
  %24 = load ptr, ptr %23, align 8
  %25 = ptrtoint ptr %24 to i64
  %26 = ptrtoint ptr %20 to i64
  %27 = sub i64 %25, %26
  %28 = shl i64 %27, 32
  %sext = add i64 %28, 4294967296
  %29 = ashr exact i64 %sext, 32
  %30 = call ptr @palloc(i64 noundef %29) #15
  %31 = load ptr, ptr %19, align 8
  %32 = ashr exact i64 %28, 32
  call void @llvm.memcpy.p0.p0.i64(ptr align 1 %30, ptr align 1 %31, i64 %32, i1 false)
  %33 = getelementptr inbounds i8, ptr %30, i64 %32
  store i8 0, ptr %33, align 1
  br label %.sink.split

34:                                               ; preds = %12
  %35 = getelementptr inbounds nuw i8, ptr %0, i64 24
  %36 = load ptr, ptr %35, align 8
  br label %.sink.split

.sink.split:                                      ; preds = %34, %21
  %.sink = phi ptr [ %30, %21 ], [ %36, %34 ]
  %37 = getelementptr inbounds nuw i8, ptr %15, i64 64
  store ptr %.sink, ptr %37, align 8
  br label %38

38:                                               ; preds = %.sink.split, %9, %3
  call void @llvm.lifetime.end.p0(i64 1, ptr nonnull %4) #15
  ret i32 0
}